target datalayout = "e-m:e-p270:32:32-p271:32:32-p272:64:64-i64:64-i128:128-f80:128-n8:16:32:64-S128"
target triple = "x86_64-pc-linux-gnu"

%struct.ReplicationSlot = type { i8, i8, i32, i8, i8, i32, i32, %struct.ReplicationSlotPersistentData, %struct.LWLock, %struct.ConditionVariable, i32, i64, i64, i64, i64, i64 }
%struct.ReplicationSlotPersistentData = type { %struct.nameData, i32, i32, i32, i32, i64, i32, i64, i64, i8, %struct.nameData, i8, i8 }
%struct.nameData = type { [64 x i8] }
%struct.LWLock = type { i16, %struct.pg_atomic_uint32, %struct.proclist_head }
%struct.pg_atomic_uint32 = type { i32 }
%struct.proclist_head = type { i32, i32 }
%struct.ConditionVariable = type { i8, %struct.proclist_head }
%union.LWLockPadded = type { %struct.LWLock, [112 x i8] }
%struct.PGPROC = type { %struct.dlist_node, ptr, ptr, i32, %struct.Latch, i32, i32, i32, i32, %struct.anon, i32, i32, i32, i8, i8, i8, i8, %struct.proclist_node, %struct.proclist_node, ptr, ptr, i32, i32, %struct.pg_atomic_uint64, i32, i8, i64, i32, %struct.dlist_node, [16 x %struct.dlist_head], %struct.XidCacheStatus, %struct.XidCache, i8, %struct.pg_atomic_uint32, i32, i32, i8, %struct.pg_atomic_uint32, i32, i32, i64, i64, %struct.LWLock, ptr, ptr, i8, i32, ptr, %struct.dlist_head, %struct.dlist_node }
%struct.Latch = type { i32, i32, i8, i32 }
%struct.anon = type { i32, i32 }
%struct.proclist_node = type { i32, i32 }
%struct.pg_atomic_uint64 = type { i64 }
%struct.XidCacheStatus = type { i8, i8 }
%struct.XidCache = type { [64 x i32] }
%struct.dlist_head = type { %struct.dlist_node }
%struct.dlist_node = type { ptr, ptr }
%struct.PROC_HDR = type { ptr, ptr, ptr, ptr, i32, %struct.dlist_head, %struct.dlist_head, %struct.dlist_head, %struct.dlist_head, %struct.pg_atomic_uint32, %struct.pg_atomic_uint32, i32, i32, i32, i32 }

@MyReplicationSlot = dso_local global ptr null, align 8
@.str.6 = private unnamed_addr constant [7 x i8] c"slot.c\00", align 1
@MainLWLockArray = external global ptr, align 8
@am_walsender = external global i8, align 1
@log_replication_commands = external global i8, align 1
@__func__.ReplicationSlotRelease = private unnamed_addr constant [23 x i8] c"ReplicationSlotRelease\00", align 1
@MyProc = external global ptr, align 8
@ProcGlobal = external global ptr, align 8
@.str.21 = private unnamed_addr constant [39 x i8] c"released logical replication slot \22%s\22\00", align 1
@.str.22 = private unnamed_addr constant [40 x i8] c"released physical replication slot \22%s\22\00", align 1
@.str.53 = private unnamed_addr constant [40 x i8] c"../../../src/include/replication/slot.h\00", align 1
@__func__.ReplicationSlotSetInactiveSince = private unnamed_addr constant [32 x i8] c"ReplicationSlotSetInactiveSince\00", align 1

; Function Attrs: inlinehint nounwind uwtable
define internal void @ReplicationSlotSetInactiveSince(ptr noundef %0, i64 noundef %1, i1 noundef zeroext %2) #7 {
  %4 = alloca ptr, align 8
  %5 = alloca i64, align 8
  %6 = alloca i8, align 1
  store ptr %0, ptr %4, align 8
  store i64 %1, ptr %5, align 8
  %7 = zext i1 %2 to i8
  store i8 %7, ptr %6, align 1
  %8 = load i8, ptr %6, align 1, !range !4, !noundef !5
  %9 = trunc i8 %8 to i1
  br i1 %9, label %10, label %21

10:                                               ; preds = %3
  %11 = load ptr, ptr %4, align 8
  %12 = getelementptr inbounds nuw %struct.ReplicationSlot, ptr %11, i32 0, i32 0
  %13 = call i32 @tas(ptr noundef %12)
  %14 = icmp ne i32 %13, 0
  br i1 %14, label %15, label %19

15:                                               ; preds = %10
  %16 = load ptr, ptr %4, align 8
  %17 = getelementptr inbounds nuw %struct.ReplicationSlot, ptr %16, i32 0, i32 0
  %18 = call i32 @s_lock(ptr noundef %17, ptr noundef @.str.53, i32 noundef 239, ptr noundef @__func__.ReplicationSlotSetInactiveSince)
  br label %20

19:                                               ; preds = %10
  br label %20

20:                                               ; preds = %19, %15
  br label %21

21:                                               ; preds = %20, %3
  %22 = load ptr, ptr %4, align 8
  %23 = getelementptr inbounds nuw %struct.ReplicationSlot, ptr %22, i32 0, i32 7
  %24 = getelementptr inbounds nuw %struct.ReplicationSlotPersistentData, ptr %23, i32 0, i32 6
  %25 = load i32, ptr %24, align 8
  %26 = icmp eq i32 %25, 0
  br i1 %26, label %27, label %31

27:                                               ; preds = %21
  %28 = load i64, ptr %5, align 8
  %29 = load ptr, ptr %4, align 8
  %30 = getelementptr inbounds nuw %struct.ReplicationSlot, ptr %29, i32 0, i32 15
  store i64 %28, ptr %30, align 8
  br label %31

31:                                               ; preds = %27, %21
  %32 = load i8, ptr %6, align 1, !range !4, !noundef !5
  %33 = trunc i8 %32 to i1
  br i1 %33, label %34, label %39

34:                                               ; preds = %31
  br label %35

35:                                               ; preds = %34
  call void asm sideeffect "", "~{memory},~{dirflag},~{fpsr},~{flags}"() #12, !srcloc !16
  %36 = load ptr, ptr %4, align 8
  %37 = getelementptr inbounds nuw %struct.ReplicationSlot, ptr %36, i32 0, i32 0
  store i8 0, ptr %37, align 8
  br label %38

38:                                               ; preds = %35
  br label %39

39:                                               ; preds = %38, %31
  ret void
}

; Function Attrs: inlinehint nounwind uwtable
define internal i32 @tas(ptr noundef %0) #7 {
  %2 = alloca ptr, align 8
  %3 = alloca i8, align 1
  store ptr %0, ptr %2, align 8
  call void @llvm.lifetime.start.p0(i64 1, ptr %3) #12
  store i8 1, ptr %3, align 1
  %4 = load i8, ptr %3, align 1
  %5 = load ptr, ptr %2, align 8
  %6 = call i8 asm sideeffect "\09lock\09\09\09\0A\09xchgb\09$0,$1\09\0A", "=q,=*m,0,*m,~{memory},~{cc},~{dirflag},~{fpsr},~{flags}"(ptr elementtype(i8) %5, i8 %4, ptr elementtype(i8) %5) #12, !srcloc !13
  store i8 %6, ptr %3, align 1
  %7 = load i8, ptr %3, align 1
  %8 = zext i8 %7 to i32
  call void @llvm.lifetime.end.p0(i64 1, ptr %3) #12
  ret i32 %8
}

; Function Attrs: nounwind uwtable
define dso_local void @ReplicationSlotDropAcquired() #0 {
  %1 = alloca ptr, align 8
  call void @llvm.lifetime.start.p0(i64 8, ptr %1) #12
  %2 = load ptr, ptr @MyReplicationSlot, align 8
  store ptr %2, ptr %1, align 8
  store ptr null, ptr @MyReplicationSlot, align 8
  %3 = load ptr, ptr %1, align 8
  call void @ReplicationSlotDropPtr(ptr noundef %3)
  call void @llvm.lifetime.end.p0(i64 8, ptr %1) #12
  ret void
}

; Function Attrs: nounwind uwtable
define dso_local void @ReplicationSlotRelease() #0 {
  %1 = alloca ptr, align 8
  %2 = alloca ptr, align 8
  %3 = alloca i8, align 1
  %4 = alloca i64, align 8
  call void @llvm.lifetime.start.p0(i64 8, ptr %1) #12
  %5 = load ptr, ptr @MyReplicationSlot, align 8
  store ptr %5, ptr %1, align 8
  call void @llvm.lifetime.start.p0(i64 8, ptr %2) #12
  store ptr null, ptr %2, align 8
  call void @llvm.lifetime.start.p0(i64 1, ptr %3) #12
  store i8 0, ptr %3, align 1
  call void @llvm.lifetime.start.p0(i64 8, ptr %4) #12
  store i64 0, ptr %4, align 8
  %6 = load i8, ptr @am_walsender, align 1, !range !4, !noundef !5
  %7 = trunc i8 %6 to i1
  br i1 %7, label %8, label %21

8:                                                ; preds = %0
  %9 = load ptr, ptr %1, align 8
  %10 = getelementptr inbounds nuw %struct.ReplicationSlot, ptr %9, i32 0, i32 7
  %11 = getelementptr inbounds nuw %struct.ReplicationSlotPersistentData, ptr %10, i32 0, i32 0
  %12 = getelementptr inbounds nuw %struct.nameData, ptr %11, i32 0, i32 0
  %13 = getelementptr inbounds [64 x i8], ptr %12, i64 0, i64 0
  %14 = call ptr @pstrdup(ptr noundef %13)
  store ptr %14, ptr %2, align 8
  %15 = load ptr, ptr %1, align 8
  %16 = getelementptr inbounds nuw %struct.ReplicationSlot, ptr %15, i32 0, i32 7
  %17 = getelementptr inbounds nuw %struct.ReplicationSlotPersistentData, ptr %16, i32 0, i32 1
  %18 = load i32, ptr %17, align 8
  %19 = icmp ne i32 %18, 0
  %20 = zext i1 %19 to i8
  store i8 %20, ptr %3, align 1
  br label %21

21:                                               ; preds = %8, %0
  %22 = load ptr, ptr %1, align 8
  %23 = getelementptr inbounds nuw %struct.ReplicationSlot, ptr %22, i32 0, i32 7
  %24 = getelementptr inbounds nuw %struct.ReplicationSlotPersistentData, ptr %23, i32 0, i32 2
  %25 = load i32, ptr %24, align 4
  %26 = icmp eq i32 %25, 1
  br i1 %26, label %27, label %28

27:                                               ; preds = %21
  call void @ReplicationSlotDropAcquired()
  br label %28

28:                                               ; preds = %27, %21
  %29 = load ptr, ptr %1, align 8
  %30 = getelementptr inbounds nuw %struct.ReplicationSlot, ptr %29, i32 0, i32 7
  %31 = getelementptr inbounds nuw %struct.ReplicationSlotPersistentData, ptr %30, i32 0, i32 3
  %32 = load i32, ptr %31, align 8
  %33 = icmp ne i32 %32, 0
  br i1 %33, label %57, label %34

34:                                               ; preds = %28
  %35 = load ptr, ptr %1, align 8
  %36 = getelementptr inbounds nuw %struct.ReplicationSlot, ptr %35, i32 0, i32 5
  %37 = load i32, ptr %36, align 4
  %38 = icmp ne i32 %37, 0
  br i1 %38, label %39, label %57

39:                                               ; preds = %34
  %40 = load ptr, ptr %1, align 8
  %41 = getelementptr inbounds nuw %struct.ReplicationSlot, ptr %40, i32 0, i32 0
  %42 = call i32 @tas(ptr noundef %41)
  %43 = icmp ne i32 %42, 0
  br i1 %43, label %44, label %48

44:                                               ; preds = %39
  %45 = load ptr, ptr %1, align 8
  %46 = getelementptr inbounds nuw %struct.ReplicationSlot, ptr %45, i32 0, i32 0
  %47 = call i32 @s_lock(ptr noundef %46, ptr noundef @.str.6, i32 noundef 701, ptr noundef @__func__.ReplicationSlotRelease)
  br label %49

48:                                               ; preds = %39
  br label %49

49:                                               ; preds = %48, %44
  %50 = load ptr, ptr %1, align 8
  %51 = getelementptr inbounds nuw %struct.ReplicationSlot, ptr %50, i32 0, i32 5
  store i32 0, ptr %51, align 4
  br label %52

52:                                               ; preds = %49
  call void asm sideeffect "", "~{memory},~{dirflag},~{fpsr},~{flags}"() #12, !srcloc !17
  %53 = load ptr, ptr %1, align 8
  %54 = getelementptr inbounds nuw %struct.ReplicationSlot, ptr %53, i32 0, i32 0
  store i8 0, ptr %54, align 8
  br label %55

55:                                               ; preds = %52
  br label %56

56:                                               ; preds = %55
  call void @ReplicationSlotsComputeRequiredXmin(i1 noundef zeroext false)
  br label %57

57:                                               ; preds = %56, %34, %28
  %58 = call i64 @GetCurrentTimestamp()
  store i64 %58, ptr %4, align 8
  %59 = load ptr, ptr %1, align 8
  %60 = getelementptr inbounds nuw %struct.ReplicationSlot, ptr %59, i32 0, i32 7
  %61 = getelementptr inbounds nuw %struct.ReplicationSlotPersistentData, ptr %60, i32 0, i32 2
  %62 = load i32, ptr %61, align 4
  %63 = icmp eq i32 %62, 0
  br i1 %63, label %64, label %86

64:                                               ; preds = %57
  %65 = load ptr, ptr %1, align 8
  %66 = getelementptr inbounds nuw %struct.ReplicationSlot, ptr %65, i32 0, i32 0
  %67 = call i32 @tas(ptr noundef %66)
  %68 = icmp ne i32 %67, 0
  br i1 %68, label %69, label %73

69:                                               ; preds = %64
  %70 = load ptr, ptr %1, align 8
  %71 = getelementptr inbounds nuw %struct.ReplicationSlot, ptr %70, i32 0, i32 0
  %72 = call i32 @s_lock(ptr noundef %71, ptr noundef @.str.6, i32 noundef 719, ptr noundef @__func__.ReplicationSlotRelease)
  br label %74

73:                                               ; preds = %64
  br label %74

74:                                               ; preds = %73, %69
  %75 = load ptr, ptr %1, align 8
  %76 = getelementptr inbounds nuw %struct.ReplicationSlot, ptr %75, i32 0, i32 2
  store i32 0, ptr %76, align 4
  %77 = load ptr, ptr %1, align 8
  %78 = load i64, ptr %4, align 8
  call void @ReplicationSlotSetInactiveSince(ptr noundef %77, i64 noundef %78, i1 noundef zeroext false)
  br label %79

79:                                               ; preds = %74
  call void asm sideeffect "", "~{memory},~{dirflag},~{fpsr},~{flags}"() #12, !srcloc !18
  %80 = load ptr, ptr %1, align 8
  %81 = getelementptr inbounds nuw %struct.ReplicationSlot, ptr %80, i32 0, i32 0
  store i8 0, ptr %81, align 8
  br label %82

82:                                               ; preds = %79
  br label %83

83:                                               ; preds = %82
  %84 = load ptr, ptr %1, align 8
  %85 = getelementptr inbounds nuw %struct.ReplicationSlot, ptr %84, i32 0, i32 9
  call void @ConditionVariableBroadcast(ptr noundef %85)
  br label %89

86:                                               ; preds = %57
  %87 = load ptr, ptr %1, align 8
  %88 = load i64, ptr %4, align 8
  call void @ReplicationSlotSetInactiveSince(ptr noundef %87, i64 noundef %88, i1 noundef zeroext true)
  br label %89

89:                                               ; preds = %86, %83
  store ptr null, ptr @MyReplicationSlot, align 8
  %90 = load ptr, ptr @MainLWLockArray, align 8
  %91 = getelementptr inbounds %union.LWLockPadded, ptr %90, i64 4
  %92 = call zeroext i1 @LWLockAcquire(ptr noundef %91, i32 noundef 0)
  %93 = load ptr, ptr @MyProc, align 8
  %94 = getelementptr inbounds nuw %struct.PGPROC, ptr %93, i32 0, i32 25
  %95 = load i8, ptr %94, align 4
  %96 = zext i8 %95 to i32
  %97 = and i32 %96, -17
  %98 = trunc i32 %97 to i8
  store i8 %98, ptr %94, align 4
  %99 = load ptr, ptr @MyProc, align 8
  %100 = getelementptr inbounds nuw %struct.PGPROC, ptr %99, i32 0, i32 25
  %101 = load i8, ptr %100, align 4
  %102 = load ptr, ptr @ProcGlobal, align 8
  %103 = getelementptr inbounds nuw %struct.PROC_HDR, ptr %102, i32 0, i32 3
  %104 = load ptr, ptr %103, align 8
  %105 = load ptr, ptr @MyProc, align 8
  %106 = getelementptr inbounds nuw %struct.PGPROC, ptr %105, i32 0, i32 8
  %107 = load i32, ptr %106, align 8
  %108 = sext i32 %107 to i64
  %109 = getelementptr inbounds i8, ptr %104, i64 %108
  store i8 %101, ptr %109, align 1
  %110 = load ptr, ptr @MainLWLockArray, align 8
  %111 = getelementptr inbounds %union.LWLockPadded, ptr %110, i64 4
  call void @LWLockRelease(ptr noundef %111)
  %112 = load i8, ptr @am_walsender, align 1, !range !4, !noundef !5
  %113 = trunc i8 %112 to i1
  br i1 %113, label %114, label %160

114:                                              ; preds = %89
  br label %115

115:                                              ; preds = %114
  %116 = load i8, ptr @log_replication_commands, align 1, !range !4, !noundef !5
  %117 = trunc i8 %116 to i1
  %118 = select i1 %117, i32 15, i32 14
  %119 = call i1 @llvm.is.constant.i32(i32 %118)
  br i1 %119, label %120, label %130

120:                                              ; preds = %115
  %121 = load i8, ptr @log_replication_commands, align 1, !range !4, !noundef !5
  %122 = trunc i8 %121 to i1
  %123 = select i1 %122, i32 15, i32 14
  %124 = icmp sge i32 %123, 21
  br i1 %124, label %125, label %130

125:                                              ; preds = %120
  %126 = load i8, ptr @log_replication_commands, align 1, !range !4, !noundef !5
  %127 = trunc i8 %126 to i1
  %128 = select i1 %127, i32 15, i32 14
  %129 = call zeroext i1 @errstart_cold(i32 noundef %128, ptr noundef null) #14
  br i1 %129, label %135, label %145

130:                                              ; preds = %120, %115
  %131 = load i8, ptr @log_replication_commands, align 1, !range !4, !noundef !5
  %132 = trunc i8 %131 to i1
  %133 = select i1 %132, i32 15, i32 14
  %134 = call zeroext i1 @errstart(i32 noundef %133, ptr noundef null)
  br i1 %134, label %135, label %145

135:                                              ; preds = %130, %125
  %136 = load i8, ptr %3, align 1, !range !4, !noundef !5
  %137 = trunc i8 %136 to i1
  br i1 %137, label %138, label %141

138:                                              ; preds = %135
  %139 = load ptr, ptr %2, align 8
  %140 = call i32 (ptr, ...) @errmsg(ptr noundef @.str.21, ptr noundef %139)
  br label %144

141:                                              ; preds = %135
  %142 = load ptr, ptr %2, align 8
  %143 = call i32 (ptr, ...) @errmsg(ptr noundef @.str.22, ptr noundef %142)
  br label %144

144:                                              ; preds = %141, %138
  call void @errfinish(ptr noundef @.str.6, i32 noundef 743, ptr noundef @__func__.ReplicationSlotRelease)
  br label %145

145:                                              ; preds = %144, %130, %125
  %146 = load i8, ptr @log_replication_commands, align 1, !range !4, !noundef !5
  %147 = trunc i8 %146 to i1
  %148 = select i1 %147, i32 15, i32 14
  %149 = call i1 @llvm.is.constant.i32(i32 %148)
  br i1 %149, label %150, label %156

150:                                              ; preds = %145
  %151 = load i8, ptr @log_replication_commands, align 1, !range !4, !noundef !5
  %152 = trunc i8 %151 to i1
  %153 = select i1 %152, i32 15, i32 14
  %154 = icmp sge i32 %153, 21
  br i1 %154, label %155, label %156

155:                                              ; preds = %150
  unreachable

156:                                              ; preds = %150, %145
  br label %157

157:                                              ; preds = %156
  br label %158

158:                                              ; preds = %157
  %159 = load ptr, ptr %2, align 8
  call void @pfree(ptr noundef %159)
  br label %160

160:                                              ; preds = %158, %89
  call void @llvm.lifetime.end.p0(i64 8, ptr %4) #12
  call void @llvm.lifetime.end.p0(i64 1, ptr %3) #12
  call void @llvm.lifetime.end.p0(i64 8, ptr %2) #12
  call void @llvm.lifetime.end.p0(i64 8, ptr %1) #12
  ret void
}