; Function Attrs: nounwind uwtable
define dso_local void @ReplicationSlotRelease() local_unnamed_addr #0 {
  %1 = load ptr, ptr @MyReplicationSlot, align 8
  %2 = load i8, ptr @am_walsender, align 1, !range !4, !noundef !5
  %3 = trunc nuw i8 %2 to i1
  br i1 %3, label %4, label %10

4:                                                ; preds = %0
  %5 = getelementptr inbounds nuw i8, ptr %1, i64 24
  %6 = tail call ptr @pstrdup(ptr noundef nonnull %5) #17
  %7 = getelementptr inbounds nuw i8, ptr %1, i64 88
  %8 = load i32, ptr %7, align 8
  %.not27 = icmp eq i32 %8, 0
  %9 = select i1 %.not27, ptr @.str.22, ptr @.str.21
  br label %10

10:                                               ; preds = %4, %0
  %.022 = phi ptr [ %6, %4 ], [ null, %0 ]
  %.0 = phi ptr [ %9, %4 ], [ @.str.22, %0 ]
  %11 = getelementptr inbounds nuw i8, ptr %1, i64 92
  %12 = load i32, ptr %11, align 4
  %13 = icmp eq i32 %12, 1
  br i1 %13, label %14, label %16

14:                                               ; preds = %10
  %15 = load ptr, ptr @MyReplicationSlot, align 8
  store ptr null, ptr @MyReplicationSlot, align 8
  tail call fastcc void @ReplicationSlotDropPtr(ptr noundef %15)
  br label %16

16:                                               ; preds = %14, %10
  %17 = getelementptr inbounds nuw i8, ptr %1, i64 96
  %18 = load i32, ptr %17, align 8
  %.not = icmp eq i32 %18, 0
  br i1 %.not, label %19, label %27

19:                                               ; preds = %16
  %20 = getelementptr inbounds nuw i8, ptr %1, i64 12
  %21 = load i32, ptr %20, align 4
  %.not23 = icmp eq i32 %21, 0
  br i1 %.not23, label %27, label %22

22:                                               ; preds = %19
  %23 = tail call i8 asm sideeffect "\09lock\09\09\09\0A\09xchgb\09$0,$1\09\0A", "=q,=*m,0,*m,~{memory},~{cc},~{dirflag},~{fpsr},~{flags}"(ptr nonnull elementtype(i8) %1, i8 1, ptr nonnull elementtype(i8) %1) #17, !srcloc !11
  %.not24 = icmp eq i8 %23, 0
  br i1 %.not24, label %26, label %24

24:                                               ; preds = %22
  %25 = tail call i32 @s_lock(ptr noundef nonnull %1, ptr noundef nonnull @.str.6, i32 noundef 701, ptr noundef nonnull @__func__.ReplicationSlotRelease) #17
  br label %26

26:                                               ; preds = %22, %24
  store i32 0, ptr %20, align 4
  tail call void asm sideeffect "", "~{memory},~{dirflag},~{fpsr},~{flags}"() #17, !srcloc !16
  store i8 0, ptr %1, align 8
  tail call void @ReplicationSlotsComputeRequiredXmin(i1 noundef zeroext false)
  br label %27

27:                                               ; preds = %26, %19, %16
  %28 = tail call i64 @GetCurrentTimestamp() #17
  %29 = load i32, ptr %11, align 4
  %30 = icmp eq i32 %29, 0
  %31 = tail call i8 asm sideeffect "\09lock\09\09\09\0A\09xchgb\09$0,$1\09\0A", "=q,=*m,0,*m,~{memory},~{cc},~{dirflag},~{fpsr},~{flags}"(ptr nonnull elementtype(i8) %1, i8 1, ptr nonnull elementtype(i8) %1) #17
  %.not25 = icmp eq i8 %31, 0
  br i1 %30, label %32, label %43

32:                                               ; preds = %27
  br i1 %.not25, label %35, label %33

33:                                               ; preds = %32
  %34 = tail call i32 @s_lock(ptr noundef nonnull %1, ptr noundef nonnull @.str.6, i32 noundef 719, ptr noundef nonnull @__func__.ReplicationSlotRelease) #17
  br label %35

35:                                               ; preds = %32, %33
  %36 = getelementptr inbounds nuw i8, ptr %1, i64 4
  store i32 0, ptr %36, align 4
  %37 = getelementptr inbounds nuw i8, ptr %1, i64 112
  %38 = load i32, ptr %37, align 8
  %39 = icmp eq i32 %38, 0
  br i1 %39, label %40, label %ReplicationSlotSetInactiveSince.exit

40:                                               ; preds = %35
  %41 = getelementptr inbounds nuw i8, ptr %1, i64 272
  store i64 %28, ptr %41, align 8
  br label %ReplicationSlotSetInactiveSince.exit

ReplicationSlotSetInactiveSince.exit:             ; preds = %35, %40
  tail call void asm sideeffect "", "~{memory},~{dirflag},~{fpsr},~{flags}"() #17, !srcloc !17
  store i8 0, ptr %1, align 8
  %42 = getelementptr inbounds nuw i8, ptr %1, i64 224
  tail call void @ConditionVariableBroadcast(ptr noundef nonnull %42) #17
  br label %52

43:                                               ; preds = %27
  br i1 %.not25, label %46, label %44

44:                                               ; preds = %43
  %45 = tail call i32 @s_lock(ptr noundef nonnull %1, ptr noundef nonnull @.str.53, i32 noundef 239, ptr noundef nonnull @__func__.ReplicationSlotSetInactiveSince) #17
  br label %46

46:                                               ; preds = %44, %43
  %47 = getelementptr inbounds nuw i8, ptr %1, i64 112
  %48 = load i32, ptr %47, align 8
  %49 = icmp eq i32 %48, 0
  br i1 %49, label %50, label %ReplicationSlotSetInactiveSince.exit26

50:                                               ; preds = %46
  %51 = getelementptr inbounds nuw i8, ptr %1, i64 272
  store i64 %28, ptr %51, align 8
  br label %ReplicationSlotSetInactiveSince.exit26

ReplicationSlotSetInactiveSince.exit26:           ; preds = %46, %50
  tail call void asm sideeffect "", "~{memory},~{dirflag},~{fpsr},~{flags}"() #17, !srcloc !15
  store i8 0, ptr %1, align 8
  br label %52

52:                                               ; preds = %ReplicationSlotSetInactiveSince.exit26, %ReplicationSlotSetInactiveSince.exit
  store ptr null, ptr @MyReplicationSlot, align 8
  %53 = load ptr, ptr @MainLWLockArray, align 8
  %54 = getelementptr inbounds nuw i8, ptr %53, i64 512
  %55 = tail call zeroext i1 @LWLockAcquire(ptr noundef nonnull %54, i32 noundef 0) #17
  %56 = load ptr, ptr @MyProc, align 8
  %57 = getelementptr inbounds nuw i8, ptr %56, i64 148
  %58 = load i8, ptr %57, align 4
  %59 = and i8 %58, -17
  store i8 %59, ptr %57, align 4
  %60 = load ptr, ptr @ProcGlobal, align 8
  %61 = getelementptr inbounds nuw i8, ptr %60, i64 24
  %62 = load ptr, ptr %61, align 8
  %63 = getelementptr inbounds nuw i8, ptr %56, i64 64
  %64 = load i32, ptr %63, align 8
  %65 = sext i32 %64 to i64
  %66 = getelementptr inbounds i8, ptr %62, i64 %65
  store i8 %59, ptr %66, align 1
  %67 = load ptr, ptr @MainLWLockArray, align 8
  %68 = getelementptr inbounds nuw i8, ptr %67, i64 512
  tail call void @LWLockRelease(ptr noundef nonnull %68) #17
  %69 = load i8, ptr @am_walsender, align 1, !range !4, !noundef !5
  %70 = trunc nuw i8 %69 to i1
  br i1 %70, label %71, label %79

71:                                               ; preds = %52
  %72 = load i8, ptr @log_replication_commands, align 1, !range !4, !noundef !5
  %73 = trunc nuw i8 %72 to i1
  %74 = select i1 %73, i32 15, i32 14
  %75 = tail call zeroext i1 @errstart(i32 noundef %74, ptr noundef null) #17
  br i1 %75, label %76, label %78

76:                                               ; preds = %71
  %77 = tail call i32 (ptr, ...) @errmsg(ptr noundef nonnull %.0, ptr noundef %.022) #17
  tail call void @errfinish(ptr noundef nonnull @.str.6, i32 noundef 743, ptr noundef nonnull @__func__.ReplicationSlotRelease) #17
  br label %78

78:                                               ; preds = %76, %71
  tail call void @pfree(ptr noundef %.022) #17
  br label %79

79:                                               ; preds = %78, %52
  ret void
}